target datalayout = "e-m:e-p270:32:32-p271:32:32-p272:64:64-i64:64-i128:128-f80:128-n8:16:32:64-S128"
target triple = "x86_64-pc-linux-gnu"

; Function Attrs: null_pointer_is_valid sspstrong uwtable
define internal i32 @read_c2(ptr noundef %0, i32 noundef %1, ptr noundef %2, ptr noundef %3) #0 {
  %5 = alloca ptr, align 8
  %6 = alloca i32, align 4
  %7 = alloca ptr, align 8
  %8 = alloca ptr, align 8
  %9 = alloca i16, align 2
  %10 = alloca i8, align 1
  store ptr %0, ptr %5, align 8
  store i32 %1, ptr %6, align 4
  store ptr %2, ptr %7, align 8
  store ptr %3, ptr %8, align 8
  call void @llvm.lifetime.start.p0(i64 2, ptr %9) #19
  store i16 0, ptr %9, align 2
  call void @llvm.lifetime.start.p0(i64 1, ptr %10) #19
  %11 = load ptr, ptr %5, align 8
  %12 = load i32, ptr %6, align 4
  %13 = add i32 %12, 1
  store i32 %13, ptr %6, align 4
  %14 = call zeroext i8 @tvb_get_uint8(ptr noundef %11, i32 noundef %12)
  store i8 %14, ptr %10, align 1
  %15 = load i8, ptr %10, align 1
  %16 = zext i8 %15 to i32
  %17 = and i32 %16, 128
  %18 = icmp ne i32 %17, 0
  br i1 %18, label %19, label %39

19:                                               ; preds = %4
  %20 = load i8, ptr %10, align 1
  %21 = zext i8 %20 to i32
  %22 = and i32 %21, 127
  %23 = trunc i32 %22 to i8
  store i8 %23, ptr %10, align 1
  %24 = load i8, ptr %10, align 1
  %25 = zext i8 %24 to i32
  %26 = shl i32 %25, 8
  %27 = load ptr, ptr %5, align 8
  %28 = load i32, ptr %6, align 4
  %29 = add i32 %28, 1
  store i32 %29, ptr %6, align 4
  %30 = call zeroext i8 @tvb_get_uint8(ptr noundef %27, i32 noundef %28)
  %31 = zext i8 %30 to i32
  %32 = or i32 %26, %31
  %33 = trunc i32 %32 to i16
  store i16 %33, ptr %9, align 2
  %34 = load ptr, ptr %8, align 8
  %35 = icmp ne ptr %34, null
  br i1 %35, label %36, label %38

36:                                               ; preds = %19
  %37 = load ptr, ptr %8, align 8
  store i32 2, ptr %37, align 4
  br label %38

38:                                               ; preds = %36, %19
  br label %47

39:                                               ; preds = %4
  %40 = load i8, ptr %10, align 1
  %41 = zext i8 %40 to i16
  store i16 %41, ptr %9, align 2
  %42 = load ptr, ptr %8, align 8
  %43 = icmp ne ptr %42, null
  br i1 %43, label %44, label %46

44:                                               ; preds = %39
  %45 = load ptr, ptr %8, align 8
  store i32 1, ptr %45, align 4
  br label %46

46:                                               ; preds = %44, %39
  br label %47

47:                                               ; preds = %46, %38
  %48 = load ptr, ptr %7, align 8
  %49 = icmp ne ptr %48, null
  br i1 %49, label %50, label %53

50:                                               ; preds = %47
  %51 = load i16, ptr %9, align 2
  %52 = load ptr, ptr %7, align 8
  store i16 %51, ptr %52, align 2
  br label %53

53:                                               ; preds = %50, %47
  %54 = load i32, ptr %6, align 4
  call void @llvm.lifetime.end.p0(i64 1, ptr %10) #19
  call void @llvm.lifetime.end.p0(i64 2, ptr %9) #19
  ret i32 %54
}