; Function Attrs: null_pointer_is_valid sspstrong uwtable
define internal fastcc void @read_c2(ptr noundef %0, i32 noundef %1, ptr noundef writeonly captures(address_is_null) %2, ptr noundef writeonly captures(address_is_null) %3) unnamed_addr #0 {
  %5 = tail call zeroext i8 @tvb_get_uint8(ptr noundef %0, i32 noundef %1)
  %.not = icmp sgt i8 %5, -1
  br i1 %.not, label %14, label %6

6:                                                ; preds = %4
  %7 = add i32 %1, 1
  %8 = and i8 %5, 127
  %9 = zext nneg i8 %8 to i16
  %10 = shl nuw nsw i16 %9, 8
  %11 = tail call zeroext i8 @tvb_get_uint8(ptr noundef %0, i32 noundef %7)
  %12 = zext i8 %11 to i16
  %13 = or disjoint i16 %10, %12
  %.not19 = icmp eq ptr %3, null
  br i1 %.not19, label %16, label %.sink.split

14:                                               ; preds = %4
  %15 = zext nneg i8 %5 to i16
  %.not18 = icmp eq ptr %3, null
  br i1 %.not18, label %16, label %.sink.split

.sink.split:                                      ; preds = %14, %6
  %.sink = phi i32 [ 2, %6 ], [ 1, %14 ]
  %.0.ph = phi i16 [ %13, %6 ], [ %15, %14 ]
  store i32 %.sink, ptr %3, align 4
  br label %16

16:                                               ; preds = %.sink.split, %14, %6
  %.0 = phi i16 [ %13, %6 ], [ %15, %14 ], [ %.0.ph, %.sink.split ]
  %.not20 = icmp eq ptr %2, null
  br i1 %.not20, label %18, label %17

17:                                               ; preds = %16
  store i16 %.0, ptr %2, align 2
  br label %18

18:                                               ; preds = %17, %16
  ret void
}